; ModuleID = '40/236.c'
source_filename = "40/236.c"
target datalayout = "e-m:e-p270:32:32-p271:32:32-p272:64:64-i64:64-f80:128-n8:16:32:64-S128"
target triple = "x86_64-pc-linux-gnu"

@.str = private unnamed_addr constant [16 x i8] c"%lf%lf%lf%lf%lf\00", align 1
@.str.1 = private unnamed_addr constant [14 x i8] c"Invalid input\00", align 1
@.str.2 = private unnamed_addr constant [7 x i8] c"%.4lf\0A\00", align 1

; Function Attrs: noinline nounwind uwtable
define dso_local i32 @main() #0 {
  %1 = alloca i32, align 4
  %2 = alloca double, align 8
  %3 = alloca double, align 8
  %4 = alloca double, align 8
  %5 = alloca double, align 8
  %6 = alloca double, align 8
  %7 = alloca double, align 8
  %8 = alloca double, align 8
  store i32 0, i32* %1, align 4
  store double 1.000000e+00, double* %6, align 8
  %9 = call i32 (i8*, ...) @__isoc99_scanf(i8* getelementptr inbounds ([16 x i8], [16 x i8]* @.str, i64 0, i64 0), double* %2, double* %3, double* %4, double* %5, double* %7)
  %10 = load double, double* %7, align 8
  %11 = fmul double %10, 1.000000e+02
  %12 = fdiv double %11, 3.600000e+02
  store double %12, double* %7, align 8
  %13 = load double, double* %2, align 8
  %14 = load double, double* %3, align 8
  %15 = fadd double %13, %14
  %16 = load double, double* %4, align 8
  %17 = fadd double %15, %16
  %18 = load double, double* %5, align 8
  %19 = fadd double %17, %18
  %20 = fmul double 5.000000e-01, %19
  store double %20, double* %6, align 8
  %21 = load double, double* %6, align 8
  %22 = load double, double* %2, align 8
  %23 = fsub double %21, %22
  %24 = load double, double* %6, align 8
  %25 = load double, double* %3, align 8
  %26 = fsub double %24, %25
  %27 = fmul double %23, %26
  %28 = load double, double* %6, align 8
  %29 = load double, double* %4, align 8
  %30 = fsub double %28, %29
  %31 = fmul double %27, %30
  %32 = load double, double* %6, align 8
  %33 = load double, double* %5, align 8
  %34 = fsub double %32, %33
  %35 = fmul double %31, %34
  %36 = load double, double* %2, align 8
  %37 = load double, double* %3, align 8
  %38 = fmul double %36, %37
  %39 = load double, double* %4, align 8
  %40 = fmul double %38, %39
  %41 = load double, double* %5, align 8
  %42 = fmul double %40, %41
  %43 = load double, double* %7, align 8
  %44 = call double @cos(double %43) #3
  %45 = fmul double %42, %44
  %46 = load double, double* %7, align 8
  %47 = call double @cos(double %46) #3
  %48 = fmul double %45, %47
  %49 = fsub double %35, %48
  %50 = fcmp olt double %49, 0.000000e+00
  br i1 %50, label %51, label %53

51:                                               ; preds = %0
  %52 = call i32 (i8*, ...) @printf(i8* getelementptr inbounds ([14 x i8], [14 x i8]* @.str.1, i64 0, i64 0))
  store i32 0, i32* %1, align 4
  br label %86

53:                                               ; preds = %0
  %54 = load double, double* %6, align 8
  %55 = load double, double* %2, align 8
  %56 = fsub double %54, %55
  %57 = load double, double* %6, align 8
  %58 = load double, double* %3, align 8
  %59 = fsub double %57, %58
  %60 = fmul double %56, %59
  %61 = load double, double* %6, align 8
  %62 = load double, double* %4, align 8
  %63 = fsub double %61, %62
  %64 = fmul double %60, %63
  %65 = load double, double* %6, align 8
  %66 = load double, double* %5, align 8
  %67 = fsub double %65, %66
  %68 = fmul double %64, %67
  %69 = load double, double* %2, align 8
  %70 = load double, double* %3, align 8
  %71 = fmul double %69, %70
  %72 = load double, double* %4, align 8
  %73 = fmul double %71, %72
  %74 = load double, double* %5, align 8
  %75 = fmul double %73, %74
  %76 = load double, double* %7, align 8
  %77 = call double @cos(double %76) #3
  %78 = fmul double %75, %77
  %79 = load double, double* %7, align 8
  %80 = call double @cos(double %79) #3
  %81 = fmul double %78, %80
  %82 = fsub double %68, %81
  %83 = call double @sqrt(double %82) #3
  store double %83, double* %8, align 8
  %84 = load double, double* %8, align 8
  %85 = call i32 (i8*, ...) @printf(i8* getelementptr inbounds ([7 x i8], [7 x i8]* @.str.2, i64 0, i64 0), double %84)
  store i32 0, i32* %1, align 4
  br label %86

86:                                               ; preds = %53, %51
  %87 = load i32, i32* %1, align 4
  ret i32 %87
}

declare dso_local i32 @__isoc99_scanf(i8*, ...) #1

; Function Attrs: nounwind
declare dso_local double @cos(double) #2

declare dso_local i32 @printf(i8*, ...) #1

; Function Attrs: nounwind
declare dso_local double @sqrt(double) #2


!llvm.module.flags = !{!0}
!llvm.ident = !{!1}

!0 = !{i32 1, !"wchar_size", i32 4}
!1 = !{!"clang version 10.0.0-4ubuntu1 "}
